
a.out:     file format elf64-x86-64


Disassembly of section .init:

0000000000400390 <_init>:
  400390:	48 83 ec 08          	sub    $0x8,%rsp
  400394:	e8 63 00 00 00       	callq  4003fc <call_gmon_start>
  400399:	e8 f2 00 00 00       	callq  400490 <frame_dummy>
  40039e:	e8 dd 01 00 00       	callq  400580 <__do_global_ctors_aux>
  4003a3:	48 83 c4 08          	add    $0x8,%rsp
  4003a7:	c3                   	retq   

Disassembly of section .plt:

00000000004003a8 <__libc_start_main@plt-0x10>:
  4003a8:	ff 35 42 0c 20 00    	pushq  0x200c42(%rip)        # 600ff0 <_GLOBAL_OFFSET_TABLE_+0x8>
  4003ae:	ff 25 44 0c 20 00    	jmpq   *0x200c44(%rip)        # 600ff8 <_GLOBAL_OFFSET_TABLE_+0x10>
  4003b4:	0f 1f 40 00          	nopl   0x0(%rax)

00000000004003b8 <__libc_start_main@plt>:
  4003b8:	ff 25 42 0c 20 00    	jmpq   *0x200c42(%rip)        # 601000 <_GLOBAL_OFFSET_TABLE_+0x18>
  4003be:	68 00 00 00 00       	pushq  $0x0
  4003c3:	e9 e0 ff ff ff       	jmpq   4003a8 <_init+0x18>

Disassembly of section .text:

00000000004003d0 <_start>:
  4003d0:	31 ed                	xor    %ebp,%ebp
  4003d2:	49 89 d1             	mov    %rdx,%r9
  4003d5:	5e                   	pop    %rsi
  4003d6:	48 89 e2             	mov    %rsp,%rdx
  4003d9:	48 83 e4 f0          	and    $0xfffffffffffffff0,%rsp
  4003dd:	50                   	push   %rax
  4003de:	54                   	push   %rsp
  4003df:	49 c7 c0 e0 04 40 00 	mov    $0x4004e0,%r8
  4003e6:	48 c7 c1 f0 04 40 00 	mov    $0x4004f0,%rcx
  4003ed:	48 c7 c7 ca 04 40 00 	mov    $0x4004ca,%rdi
  4003f4:	e8 bf ff ff ff       	callq  4003b8 <__libc_start_main@plt>
  4003f9:	f4                   	hlt    
  4003fa:	90                   	nop
  4003fb:	90                   	nop

00000000004003fc <call_gmon_start>:
  4003fc:	48 83 ec 08          	sub    $0x8,%rsp
  400400:	48 8b 05 d9 0b 20 00 	mov    0x200bd9(%rip),%rax        # 600fe0 <_DYNAMIC+0x190>
  400407:	48 85 c0             	test   %rax,%rax
  40040a:	74 02                	je     40040e <call_gmon_start+0x12>
  40040c:	ff d0                	callq  *%rax
  40040e:	48 83 c4 08          	add    $0x8,%rsp
  400412:	c3                   	retq   
  400413:	90                   	nop
  400414:	90                   	nop
  400415:	90                   	nop
  400416:	90                   	nop
  400417:	90                   	nop
  400418:	90                   	nop
  400419:	90                   	nop
  40041a:	90                   	nop
  40041b:	90                   	nop
  40041c:	90                   	nop
  40041d:	90                   	nop
  40041e:	90                   	nop
  40041f:	90                   	nop

0000000000400420 <__do_global_dtors_aux>:
  400420:	55                   	push   %rbp
  400421:	48 89 e5             	mov    %rsp,%rbp
  400424:	53                   	push   %rbx
  400425:	48 83 ec 08          	sub    $0x8,%rsp
  400429:	80 3d f0 0b 20 00 00 	cmpb   $0x0,0x200bf0(%rip)        # 601020 <completed.7424>
  400430:	75 4b                	jne    40047d <__do_global_dtors_aux+0x5d>
  400432:	bb 40 0e 60 00       	mov    $0x600e40,%ebx
  400437:	48 8b 05 ea 0b 20 00 	mov    0x200bea(%rip),%rax        # 601028 <dtor_idx.7426>
  40043e:	48 81 eb 38 0e 60 00 	sub    $0x600e38,%rbx
  400445:	48 c1 fb 03          	sar    $0x3,%rbx
  400449:	48 83 eb 01          	sub    $0x1,%rbx
  40044d:	48 39 d8             	cmp    %rbx,%rax
  400450:	73 24                	jae    400476 <__do_global_dtors_aux+0x56>
  400452:	eb 04                	jmp    400458 <__do_global_dtors_aux+0x38>
  400454:	90                   	nop
  400455:	90                   	nop
  400456:	90                   	nop
  400457:	90                   	nop
  400458:	48 83 c0 01          	add    $0x1,%rax
  40045c:	48 89 05 c5 0b 20 00 	mov    %rax,0x200bc5(%rip)        # 601028 <dtor_idx.7426>
  400463:	ff 14 c5 38 0e 60 00 	callq  *0x600e38(,%rax,8)
  40046a:	48 8b 05 b7 0b 20 00 	mov    0x200bb7(%rip),%rax        # 601028 <dtor_idx.7426>
  400471:	48 39 d8             	cmp    %rbx,%rax
  400474:	72 e2                	jb     400458 <__do_global_dtors_aux+0x38>
  400476:	c6 05 a3 0b 20 00 01 	movb   $0x1,0x200ba3(%rip)        # 601020 <completed.7424>
  40047d:	48 83 c4 08          	add    $0x8,%rsp
  400481:	5b                   	pop    %rbx
  400482:	c9                   	leaveq 
  400483:	c3                   	retq   
  400484:	eb 0a                	jmp    400490 <frame_dummy>
  400486:	90                   	nop
  400487:	90                   	nop
  400488:	90                   	nop
  400489:	90                   	nop
  40048a:	90                   	nop
  40048b:	90                   	nop
  40048c:	90                   	nop
  40048d:	90                   	nop
  40048e:	90                   	nop
  40048f:	90                   	nop

0000000000400490 <frame_dummy>:
  400490:	55                   	push   %rbp
  400491:	48 83 3d af 09 20 00 	cmpq   $0x0,0x2009af(%rip)        # 600e48 <__JCR_END__>
  400498:	00 
  400499:	48 89 e5             	mov    %rsp,%rbp
  40049c:	74 12                	je     4004b0 <frame_dummy+0x20>
  40049e:	b8 00 00 00 00       	mov    $0x0,%eax
  4004a3:	48 85 c0             	test   %rax,%rax
  4004a6:	74 08                	je     4004b0 <frame_dummy+0x20>
  4004a8:	bf 48 0e 60 00       	mov    $0x600e48,%edi
  4004ad:	c9                   	leaveq 
  4004ae:	ff e0                	jmpq   *%rax
  4004b0:	c9                   	leaveq 
  4004b1:	c3                   	retq   
  4004b2:	90                   	nop
  4004b3:	90                   	nop

00000000004004b4 <square>:
  4004b4:	55                   	push   %rbp
  4004b5:	48 89 e5             	mov    %rsp,%rbp
  4004b8:	89 7d ec             	mov    %edi,-0x14(%rbp)
  4004bb:	8b 45 ec             	mov    -0x14(%rbp),%eax
  4004be:	0f af 45 ec          	imul   -0x14(%rbp),%eax
  4004c2:	89 45 fc             	mov    %eax,-0x4(%rbp)
  4004c5:	8b 45 fc             	mov    -0x4(%rbp),%eax
  4004c8:	c9                   	leaveq 
  4004c9:	c3                   	retq   

00000000004004ca <main>:
  4004ca:	55                   	push   %rbp
  4004cb:	48 89 e5             	mov    %rsp,%rbp
  4004ce:	8b 05 44 0b 20 00    	mov    0x200b44(%rip),%eax        # 601018 <g3>
  4004d4:	83 c0 01             	add    $0x1,%eax
  4004d7:	89 05 3b 0b 20 00    	mov    %eax,0x200b3b(%rip)        # 601018 <g3>
  4004dd:	c9                   	leaveq 
  4004de:	c3                   	retq   
  4004df:	90                   	nop

00000000004004e0 <__libc_csu_fini>:
  4004e0:	f3 c3                	repz retq 
  4004e2:	eb 0c                	jmp    4004f0 <__libc_csu_init>
  4004e4:	90                   	nop
  4004e5:	90                   	nop
  4004e6:	90                   	nop
  4004e7:	90                   	nop
  4004e8:	90                   	nop
  4004e9:	90                   	nop
  4004ea:	90                   	nop
  4004eb:	90                   	nop
  4004ec:	90                   	nop
  4004ed:	90                   	nop
  4004ee:	90                   	nop
  4004ef:	90                   	nop

00000000004004f0 <__libc_csu_init>:
  4004f0:	48 89 6c 24 d8       	mov    %rbp,-0x28(%rsp)
  4004f5:	4c 89 64 24 e0       	mov    %r12,-0x20(%rsp)
  4004fa:	48 8d 2d 23 09 20 00 	lea    0x200923(%rip),%rbp        # 600e24 <__init_array_end>
  400501:	4c 8d 25 1c 09 20 00 	lea    0x20091c(%rip),%r12        # 600e24 <__init_array_end>
  400508:	4c 89 6c 24 e8       	mov    %r13,-0x18(%rsp)
  40050d:	4c 89 74 24 f0       	mov    %r14,-0x10(%rsp)
  400512:	4c 89 7c 24 f8       	mov    %r15,-0x8(%rsp)
  400517:	48 89 5c 24 d0       	mov    %rbx,-0x30(%rsp)
  40051c:	48 83 ec 38          	sub    $0x38,%rsp
  400520:	4c 29 e5             	sub    %r12,%rbp
  400523:	41 89 fd             	mov    %edi,%r13d
  400526:	49 89 f6             	mov    %rsi,%r14
  400529:	48 c1 fd 03          	sar    $0x3,%rbp
  40052d:	49 89 d7             	mov    %rdx,%r15
  400530:	e8 5b fe ff ff       	callq  400390 <_init>
  400535:	48 85 ed             	test   %rbp,%rbp
  400538:	74 1c                	je     400556 <__libc_csu_init+0x66>
  40053a:	31 db                	xor    %ebx,%ebx
  40053c:	eb 02                	jmp    400540 <__libc_csu_init+0x50>
  40053e:	90                   	nop
  40053f:	90                   	nop
  400540:	4c 89 fa             	mov    %r15,%rdx
  400543:	4c 89 f6             	mov    %r14,%rsi
  400546:	44 89 ef             	mov    %r13d,%edi
  400549:	41 ff 14 dc          	callq  *(%r12,%rbx,8)
  40054d:	48 83 c3 01          	add    $0x1,%rbx
  400551:	48 39 eb             	cmp    %rbp,%rbx
  400554:	72 ea                	jb     400540 <__libc_csu_init+0x50>
  400556:	48 8b 5c 24 08       	mov    0x8(%rsp),%rbx
  40055b:	48 8b 6c 24 10       	mov    0x10(%rsp),%rbp
  400560:	4c 8b 64 24 18       	mov    0x18(%rsp),%r12
  400565:	4c 8b 6c 24 20       	mov    0x20(%rsp),%r13
  40056a:	4c 8b 74 24 28       	mov    0x28(%rsp),%r14
  40056f:	4c 8b 7c 24 30       	mov    0x30(%rsp),%r15
  400574:	48 83 c4 38          	add    $0x38,%rsp
  400578:	c3                   	retq   
  400579:	90                   	nop
  40057a:	90                   	nop
  40057b:	90                   	nop
  40057c:	90                   	nop
  40057d:	90                   	nop
  40057e:	90                   	nop
  40057f:	90                   	nop

0000000000400580 <__do_global_ctors_aux>:
  400580:	55                   	push   %rbp
  400581:	48 89 e5             	mov    %rsp,%rbp
  400584:	53                   	push   %rbx
  400585:	48 83 ec 08          	sub    $0x8,%rsp
  400589:	48 8b 05 98 08 20 00 	mov    0x200898(%rip),%rax        # 600e28 <__CTOR_LIST__>
  400590:	48 83 f8 ff          	cmp    $0xffffffffffffffff,%rax
  400594:	74 19                	je     4005af <__do_global_ctors_aux+0x2f>
  400596:	bb 28 0e 60 00       	mov    $0x600e28,%ebx
  40059b:	eb 03                	jmp    4005a0 <__do_global_ctors_aux+0x20>
  40059d:	90                   	nop
  40059e:	90                   	nop
  40059f:	90                   	nop
  4005a0:	48 83 eb 08          	sub    $0x8,%rbx
  4005a4:	ff d0                	callq  *%rax
  4005a6:	48 8b 03             	mov    (%rbx),%rax
  4005a9:	48 83 f8 ff          	cmp    $0xffffffffffffffff,%rax
  4005ad:	75 f1                	jne    4005a0 <__do_global_ctors_aux+0x20>
  4005af:	48 83 c4 08          	add    $0x8,%rsp
  4005b3:	5b                   	pop    %rbx
  4005b4:	c9                   	leaveq 
  4005b5:	c3                   	retq   
  4005b6:	90                   	nop
  4005b7:	90                   	nop

Disassembly of section .fini:

00000000004005b8 <_fini>:
  4005b8:	48 83 ec 08          	sub    $0x8,%rsp
  4005bc:	e8 5f fe ff ff       	callq  400420 <__do_global_dtors_aux>
  4005c1:	48 83 c4 08          	add    $0x8,%rsp
  4005c5:	c3                   	retq   
